; ModuleID = '4/139.c'
source_filename = "4/139.c"
target datalayout = "e-m:e-p270:32:32-p271:32:32-p272:64:64-i64:64-f80:128-n8:16:32:64-S128"
target triple = "x86_64-pc-linux-gnu"

@.str = private unnamed_addr constant [5 x i8] c"%d%d\00", align 1
@.str.1 = private unnamed_addr constant [3 x i8] c"%d\00", align 1
@.str.2 = private unnamed_addr constant [4 x i8] c"%d\0A\00", align 1

; Function Attrs: noinline nounwind uwtable
define dso_local void @main() #0 {
  %1 = alloca i32, align 4
  %2 = alloca i32, align 4
  %3 = alloca i32, align 4
  %4 = alloca i32, align 4
  %5 = alloca i32, align 4
  %6 = alloca [1000 x [1000 x i32]], align 16
  %7 = call i32 (i8*, ...) @__isoc99_scanf(i8* getelementptr inbounds ([5 x i8], [5 x i8]* @.str, i64 0, i64 0), i32* %4, i32* %5)
  store i32 0, i32* %1, align 4
  br label %8

8:                                                ; preds = %29, %0
  %9 = load i32, i32* %1, align 4
  %10 = load i32, i32* %4, align 4
  %11 = icmp slt i32 %9, %10
  br i1 %11, label %12, label %32

12:                                               ; preds = %8
  store i32 0, i32* %2, align 4
  br label %13

13:                                               ; preds = %25, %12
  %14 = load i32, i32* %2, align 4
  %15 = load i32, i32* %5, align 4
  %16 = icmp slt i32 %14, %15
  br i1 %16, label %17, label %28

17:                                               ; preds = %13
  %18 = load i32, i32* %1, align 4
  %19 = sext i32 %18 to i64
  %20 = getelementptr inbounds [1000 x [1000 x i32]], [1000 x [1000 x i32]]* %6, i64 0, i64 %19
  %21 = load i32, i32* %2, align 4
  %22 = sext i32 %21 to i64
  %23 = getelementptr inbounds [1000 x i32], [1000 x i32]* %20, i64 0, i64 %22
  %24 = call i32 (i8*, ...) @__isoc99_scanf(i8* getelementptr inbounds ([3 x i8], [3 x i8]* @.str.1, i64 0, i64 0), i32* %23)
  br label %25

25:                                               ; preds = %17
  %26 = load i32, i32* %2, align 4
  %27 = add nsw i32 %26, 1
  store i32 %27, i32* %2, align 4
  br label %13

28:                                               ; preds = %13
  br label %29

29:                                               ; preds = %28
  %30 = load i32, i32* %1, align 4
  %31 = add nsw i32 %30, 1
  store i32 %31, i32* %1, align 4
  br label %8

32:                                               ; preds = %8
  store i32 0, i32* %3, align 4
  br label %33

33:                                               ; preds = %67, %32
  %34 = load i32, i32* %3, align 4
  %35 = load i32, i32* %5, align 4
  %36 = sub nsw i32 %35, 1
  %37 = icmp sle i32 %34, %36
  br i1 %37, label %38, label %70

38:                                               ; preds = %33
  %39 = load i32, i32* %3, align 4
  store i32 %39, i32* %2, align 4
  br label %40

40:                                               ; preds = %63, %38
  %41 = load i32, i32* %2, align 4
  %42 = icmp sge i32 %41, 0
  br i1 %42, label %43, label %50

43:                                               ; preds = %40
  %44 = load i32, i32* %3, align 4
  %45 = load i32, i32* %2, align 4
  %46 = sub nsw i32 %44, %45
  %47 = load i32, i32* %4, align 4
  %48 = sub nsw i32 %47, 1
  %49 = icmp sle i32 %46, %48
  br label %50

50:                                               ; preds = %43, %40
  %51 = phi i1 [ false, %40 ], [ %49, %43 ]
  br i1 %51, label %52, label %66

52:                                               ; preds = %50
  %53 = load i32, i32* %3, align 4
  %54 = load i32, i32* %2, align 4
  %55 = sub nsw i32 %53, %54
  %56 = sext i32 %55 to i64
  %57 = getelementptr inbounds [1000 x [1000 x i32]], [1000 x [1000 x i32]]* %6, i64 0, i64 %56
  %58 = load i32, i32* %2, align 4
  %59 = sext i32 %58 to i64
  %60 = getelementptr inbounds [1000 x i32], [1000 x i32]* %57, i64 0, i64 %59
  %61 = load i32, i32* %60, align 4
  %62 = call i32 (i8*, ...) @printf(i8* getelementptr inbounds ([4 x i8], [4 x i8]* @.str.2, i64 0, i64 0), i32 %61)
  br label %63

63:                                               ; preds = %52
  %64 = load i32, i32* %2, align 4
  %65 = add nsw i32 %64, -1
  store i32 %65, i32* %2, align 4
  br label %40

66:                                               ; preds = %50
  br label %67

67:                                               ; preds = %66
  %68 = load i32, i32* %3, align 4
  %69 = add nsw i32 %68, 1
  store i32 %69, i32* %3, align 4
  br label %33

70:                                               ; preds = %33
  %71 = load i32, i32* %5, align 4
  store i32 %71, i32* %3, align 4
  br label %72

72:                                               ; preds = %111, %70
  %73 = load i32, i32* %3, align 4
  %74 = load i32, i32* %4, align 4
  %75 = load i32, i32* %5, align 4
  %76 = add nsw i32 %74, %75
  %77 = sub nsw i32 %76, 2
  %78 = icmp sle i32 %73, %77
  br i1 %78, label %79, label %114

79:                                               ; preds = %72
  %80 = load i32, i32* %5, align 4
  %81 = sub nsw i32 %80, 1
  store i32 %81, i32* %2, align 4
  br label %82

82:                                               ; preds = %105, %79
  %83 = load i32, i32* %2, align 4
  %84 = icmp sge i32 %83, 0
  br i1 %84, label %85, label %92

85:                                               ; preds = %82
  %86 = load i32, i32* %3, align 4
  %87 = load i32, i32* %2, align 4
  %88 = sub nsw i32 %86, %87
  %89 = load i32, i32* %4, align 4
  %90 = sub nsw i32 %89, 1
  %91 = icmp sle i32 %88, %90
  br label %92

92:                                               ; preds = %85, %82
  %93 = phi i1 [ false, %82 ], [ %91, %85 ]
  br i1 %93, label %94, label %108

94:                                               ; preds = %92
  %95 = load i32, i32* %3, align 4
  %96 = load i32, i32* %2, align 4
  %97 = sub nsw i32 %95, %96
  %98 = sext i32 %97 to i64
  %99 = getelementptr inbounds [1000 x [1000 x i32]], [1000 x [1000 x i32]]* %6, i64 0, i64 %98
  %100 = load i32, i32* %2, align 4
  %101 = sext i32 %100 to i64
  %102 = getelementptr inbounds [1000 x i32], [1000 x i32]* %99, i64 0, i64 %101
  %103 = load i32, i32* %102, align 4
  %104 = call i32 (i8*, ...) @printf(i8* getelementptr inbounds ([4 x i8], [4 x i8]* @.str.2, i64 0, i64 0), i32 %103)
  br label %105

105:                                              ; preds = %94
  %106 = load i32, i32* %2, align 4
  %107 = add nsw i32 %106, -1
  store i32 %107, i32* %2, align 4
  br label %82

108:                                              ; preds = %92
  %109 = load i32, i32* %5, align 4
  %110 = sub nsw i32 %109, 1
  store i32 %110, i32* %2, align 4
  br label %111

111:                                              ; preds = %108
  %112 = load i32, i32* %3, align 4
  %113 = add nsw i32 %112, 1
  store i32 %113, i32* %3, align 4
  br label %72

114:                                              ; preds = %72
  ret void
}

declare dso_local i32 @__isoc99_scanf(i8*, ...) #1

declare dso_local i32 @printf(i8*, ...) #1


!llvm.module.flags = !{!0}
!llvm.ident = !{!1}

!0 = !{i32 1, !"wchar_size", i32 4}
!1 = !{!"clang version 10.0.0-4ubuntu1 "}
